target datalayout = "e-m:e-p270:32:32-p271:32:32-p272:64:64-i64:64-i128:128-f80:128-n8:16:32:64-S128"
target triple = "x86_64-pc-linux-gnu"

%"class.pybind11::object" = type { %"class.pybind11::handle" }
%"class.pybind11::handle" = type { ptr }
%"class.pybind11::module_" = type { %"class.pybind11::object" }
%"class.pybind11::detail::accessor" = type { [8 x i8], %"class.pybind11::handle", ptr, %"class.pybind11::object" }

@.str = private unnamed_addr constant [10 x i8] c"pipelines\00", align 1

; Function Attrs: mustprogress nounwind ssp uwtable
define linkonce_odr hidden void @_ZN8pybind116handleC2Ev(ptr noundef nonnull align 8 dereferenceable(8) %0) unnamed_addr #5 comdat align 2 {
  %2 = alloca ptr, align 8
  store ptr %0, ptr %2, align 8, !tbaa !163
  %3 = load ptr, ptr %2, align 8
  %4 = getelementptr inbounds nuw %"class.pybind11::handle", ptr %3, i32 0, i32 0
  store ptr null, ptr %4, align 8, !tbaa !129
  ret void
}

; Function Attrs: mustprogress nounwind ssp uwtable
define linkonce_odr hidden void @_ZN8pybind116objectC2Ev(ptr noundef nonnull align 8 dereferenceable(8) %0) unnamed_addr #5 comdat align 2 {
  %2 = alloca ptr, align 8
  store ptr %0, ptr %2, align 8, !tbaa !130
  %3 = load ptr, ptr %2, align 8
  call void @_ZN8pybind116handleC2Ev(ptr noundef nonnull align 8 dereferenceable(8) %3) #25
  ret void
}

; Function Attrs: mustprogress nounwind ssp uwtable
define linkonce_odr hidden void @_ZN8pybind116detail8accessorINS0_17accessor_policies8str_attrEEC2ENS_6handleEPKc(ptr noundef nonnull align 8 dereferenceable(32) %0, ptr %1, ptr noundef %2) unnamed_addr #5 comdat align 2 {
  %4 = alloca %"class.pybind11::handle", align 8
  %5 = alloca ptr, align 8
  %6 = alloca ptr, align 8
  %7 = getelementptr inbounds nuw %"class.pybind11::handle", ptr %4, i32 0, i32 0
  store ptr %1, ptr %7, align 8
  store ptr %0, ptr %5, align 8, !tbaa !135
  store ptr %2, ptr %6, align 8, !tbaa !128
  %8 = load ptr, ptr %5, align 8
  %9 = getelementptr inbounds nuw %"class.pybind11::detail::accessor", ptr %8, i32 0, i32 1
  call void @llvm.memcpy.p0.p0.i64(ptr align 8 %9, ptr align 8 %4, i64 8, i1 false)
  %10 = getelementptr inbounds nuw %"class.pybind11::detail::accessor", ptr %8, i32 0, i32 2
  %11 = load ptr, ptr %6, align 8, !tbaa !128
  store ptr %11, ptr %10, align 8, !tbaa !1626
  %12 = getelementptr inbounds nuw %"class.pybind11::detail::accessor", ptr %8, i32 0, i32 3
  call void @_ZN8pybind116objectC2Ev(ptr noundef nonnull align 8 dereferenceable(8) %12) #25
  ret void
}

; Function Attrs: mustprogress nounwind ssp uwtable
define linkonce_odr hidden noundef nonnull align 8 dereferenceable(8) ptr @_ZNK8pybind116detail10object_apiINS_6handleEE7derivedEv(ptr noundef nonnull align 1 dereferenceable(1) %0) #5 comdat align 2 !type !911 {
  %2 = alloca ptr, align 8
  store ptr %0, ptr %2, align 8, !tbaa !133
  %3 = load ptr, ptr %2, align 8
  ret ptr %3
}

; Function Attrs: mustprogress ssp uwtable
define linkonce_odr hidden void @_ZNK8pybind116detail10object_apiINS_6handleEE4attrEPKc(ptr dead_on_unwind noalias writable sret(%"class.pybind11::detail::accessor") align 8 %0, ptr noundef nonnull align 1 dereferenceable(1) %1, ptr noundef %2) #4 comdat align 2 !type !132 {
  %4 = alloca ptr, align 8
  %5 = alloca ptr, align 8
  %6 = alloca ptr, align 8
  %7 = alloca %"class.pybind11::handle", align 8
  store ptr %0, ptr %4, align 8
  store ptr %1, ptr %5, align 8, !tbaa !133
  store ptr %2, ptr %6, align 8, !tbaa !128
  %8 = load ptr, ptr %5, align 8
  %9 = call noundef nonnull align 8 dereferenceable(8) ptr @_ZNK8pybind116detail10object_apiINS_6handleEE7derivedEv(ptr noundef nonnull align 1 dereferenceable(1) %8)
  call void @llvm.memcpy.p0.p0.i64(ptr align 8 %7, ptr align 8 %9, i64 8, i1 false)
  %10 = load ptr, ptr %6, align 8, !tbaa !128
  %11 = getelementptr inbounds nuw %"class.pybind11::handle", ptr %7, i32 0, i32 0
  %12 = load ptr, ptr %11, align 8
  call void @_ZN8pybind116detail8accessorINS0_17accessor_policies8str_attrEEC2ENS_6handleEPKc(ptr noundef nonnull align 8 dereferenceable(32) %0, ptr %12, ptr noundef %10)
  ret void
}

; Function Attrs: mustprogress ssp uwtable
define hidden void @_ZN6open3d1t9pipelines28pybind_pipelines_definitionsERN8pybind117module_E(ptr noundef nonnull align 8 dereferenceable(8) %0) #4 personality ptr @__gxx_personality_v0 {
  %2 = alloca ptr, align 8
  %3 = alloca %"class.pybind11::module_", align 8
  %4 = alloca %"class.pybind11::detail::accessor", align 8
  %5 = alloca ptr, align 8
  %6 = alloca i32, align 4
  store ptr %0, ptr %2, align 8, !tbaa !125
  call void @llvm.lifetime.start.p0(i64 8, ptr %3) #25
  call void @llvm.lifetime.start.p0(i64 32, ptr %4) #25
  %7 = load ptr, ptr %2, align 8, !tbaa !125
  call void @_ZNK8pybind116detail10object_apiINS_6handleEE4attrEPKc(ptr dead_on_unwind writable sret(%"class.pybind11::detail::accessor") align 8 %4, ptr noundef nonnull align 1 dereferenceable(1) %7, ptr noundef @.str)
  invoke void @_ZN8pybind117module_C2INS_6detail17accessor_policies8str_attrEEERKNS2_8accessorIT_EE(ptr noundef nonnull align 8 dereferenceable(8) %3, ptr noundef nonnull align 8 dereferenceable(32) %4)
          to label %8 unwind label %13

8:                                                ; preds = %1
  call void @_ZN8pybind116detail8accessorINS0_17accessor_policies8str_attrEED2Ev(ptr noundef nonnull align 8 dereferenceable(32) %4) #25
  call void @llvm.lifetime.end.p0(i64 32, ptr %4) #25
  invoke void @_ZN6open3d1t9pipelines8odometry27pybind_odometry_definitionsERN8pybind117module_E(ptr noundef nonnull align 8 dereferenceable(8) %3)
          to label %9 unwind label %17

9:                                                ; preds = %8
  invoke void @_ZN6open3d1t9pipelines12registration31pybind_registration_definitionsERN8pybind117module_E(ptr noundef nonnull align 8 dereferenceable(8) %3)
          to label %10 unwind label %17

10:                                               ; preds = %9
  invoke void @_ZN6open3d1t9pipelines4slac23pybind_slac_definitionsERN8pybind117module_E(ptr noundef nonnull align 8 dereferenceable(8) %3)
          to label %11 unwind label %17

11:                                               ; preds = %10
  invoke void @_ZN6open3d1t9pipelines4slam23pybind_slam_definitionsERN8pybind117module_E(ptr noundef nonnull align 8 dereferenceable(8) %3)
          to label %12 unwind label %17

12:                                               ; preds = %11
  call void @_ZN8pybind116objectD2Ev(ptr noundef nonnull align 8 dereferenceable(8) %3) #25
  call void @llvm.lifetime.end.p0(i64 8, ptr %3) #25
  ret void

13:                                               ; preds = %1
  %14 = landingpad { ptr, i32 }
          cleanup
  %15 = extractvalue { ptr, i32 } %14, 0
  store ptr %15, ptr %5, align 8
  %16 = extractvalue { ptr, i32 } %14, 1
  store i32 %16, ptr %6, align 4
  call void @_ZN8pybind116detail8accessorINS0_17accessor_policies8str_attrEED2Ev(ptr noundef nonnull align 8 dereferenceable(32) %4) #25
  call void @llvm.lifetime.end.p0(i64 32, ptr %4) #25
  br label %21

17:                                               ; preds = %11, %10, %9, %8
  %18 = landingpad { ptr, i32 }
          cleanup
  %19 = extractvalue { ptr, i32 } %18, 0
  store ptr %19, ptr %5, align 8
  %20 = extractvalue { ptr, i32 } %18, 1
  store i32 %20, ptr %6, align 4
  call void @_ZN8pybind116objectD2Ev(ptr noundef nonnull align 8 dereferenceable(8) %3) #25
  br label %21

21:                                               ; preds = %17, %13
  call void @llvm.lifetime.end.p0(i64 8, ptr %3) #25
  br label %22

22:                                               ; preds = %21
  %23 = load ptr, ptr %5, align 8
  %24 = load i32, ptr %6, align 4
  %25 = insertvalue { ptr, i32 } poison, ptr %23, 0
  %26 = insertvalue { ptr, i32 } %25, i32 %24, 1
  resume { ptr, i32 } %26
}